target datalayout = "e-m:e-p270:32:32-p271:32:32-p272:64:64-i64:64-i128:128-f80:128-n8:16:32:64-S128"
target triple = "x86_64-unknown-linux-gnu"

%"class.std::variant" = type { %"struct.std::__detail::__variant::_Variant_base.base", [7 x i8] }
%"struct.std::__detail::__variant::_Variant_base.base" = type { %"struct.std::__detail::__variant::_Move_assign_base.base" }
%"struct.std::__detail::__variant::_Move_assign_base.base" = type { %"struct.std::__detail::__variant::_Copy_assign_base.base" }
%"struct.std::__detail::__variant::_Copy_assign_base.base" = type { %"struct.std::__detail::__variant::_Move_ctor_base.base" }
%"struct.std::__detail::__variant::_Move_ctor_base.base" = type { %"struct.std::__detail::__variant::_Copy_ctor_base.base" }
%"struct.std::__detail::__variant::_Copy_ctor_base.base" = type { %"struct.std::__detail::__variant::_Variant_storage.base" }
%"struct.std::__detail::__variant::_Variant_storage.base" = type <{ %"union.std::__detail::__variant::_Variadic_union", i8 }>
%"union.std::__detail::__variant::_Variadic_union" = type { %"union.std::__detail::__variant::_Variadic_union.4" }
%"union.std::__detail::__variant::_Variadic_union.4" = type { %"struct.std::__detail::__variant::_Uninitialized.5", [40 x i8] }
%"struct.std::__detail::__variant::_Uninitialized.5" = type { double }

; Function Attrs: mustprogress uwtable
define hidden noundef nonnull align 8 dereferenceable(8) ptr @_ZN4cvc58internallsERSoRKNS0_18StatisticBaseValueE(ptr noundef nonnull align 8 dereferenceable(8) %out, ptr noundef nonnull align 8 dereferenceable(9) %sbv) #0 personality ptr @__gxx_personality_v0 {
entry:
  %out.addr = alloca ptr, align 8
  %sbv.addr = alloca ptr, align 8
  %ref.tmp = alloca %"class.std::variant", align 8
  %exn.slot = alloca ptr, align 8
  %ehselector.slot = alloca i32, align 4
  store ptr %out, ptr %out.addr, align 8
  store ptr %sbv, ptr %sbv.addr, align 8
  %0 = load ptr, ptr %out.addr, align 8
  %1 = load ptr, ptr %sbv.addr, align 8
  %vtable = load ptr, ptr %1, align 8
  %vfn = getelementptr inbounds ptr, ptr %vtable, i64 3
  %2 = load ptr, ptr %vfn, align 8
  call void %2(ptr sret(%"class.std::variant") align 8 %ref.tmp, ptr noundef nonnull align 8 dereferenceable(9) %1)
  %call = invoke noundef nonnull align 8 dereferenceable(8) ptr @_ZN4cvc58internal6detail5printERSoRKSt7variantIJldNSt7__cxx1112basic_stringIcSt11char_traitsIcESaIcEEESt3mapIS9_mSt4lessIS9_ESaISt4pairIKS9_mEEEEE(ptr noundef nonnull align 8 dereferenceable(8) %0, ptr noundef nonnull align 8 dereferenceable(49) %ref.tmp)
          to label %invoke.cont unwind label %lpad

invoke.cont:                                      ; preds = %entry
  call void @_ZNSt7variantIJldNSt7__cxx1112basic_stringIcSt11char_traitsIcESaIcEEESt3mapIS5_mSt4lessIS5_ESaISt4pairIKS5_mEEEEED2Ev(ptr noundef nonnull align 8 dereferenceable(49) %ref.tmp) #10
  ret ptr %call

lpad:                                             ; preds = %entry
  %3 = landingpad { ptr, i32 }
          cleanup
  %4 = extractvalue { ptr, i32 } %3, 0
  store ptr %4, ptr %exn.slot, align 8
  %5 = extractvalue { ptr, i32 } %3, 1
  store i32 %5, ptr %ehselector.slot, align 4
  call void @_ZNSt7variantIJldNSt7__cxx1112basic_stringIcSt11char_traitsIcESaIcEEESt3mapIS5_mSt4lessIS5_ESaISt4pairIKS5_mEEEEED2Ev(ptr noundef nonnull align 8 dereferenceable(49) %ref.tmp) #10
  br label %eh.resume

eh.resume:                                        ; preds = %lpad
  %exn = load ptr, ptr %exn.slot, align 8
  %sel = load i32, ptr %ehselector.slot, align 4
  %lpad.val = insertvalue { ptr, i32 } poison, ptr %exn, 0
  %lpad.val1 = insertvalue { ptr, i32 } %lpad.val, i32 %sel, 1
  resume { ptr, i32 } %lpad.val1
}