; Function Attrs: mustprogress uwtable
define hidden noundef nonnull align 8 dereferenceable(8) ptr @_ZN4cvc58internallsERSoRKNS0_18StatisticBaseValueE(ptr noundef nonnull returned align 8 dereferenceable(8) %out, ptr noundef nonnull align 8 dereferenceable(9) %sbv) local_unnamed_addr #0 personality ptr @__gxx_personality_v0 {
entry:
  %ref.tmp = alloca %"class.std::variant", align 8
  %vtable = load ptr, ptr %sbv, align 8
  %vfn = getelementptr inbounds i8, ptr %vtable, i64 24
  %0 = load ptr, ptr %vfn, align 8
  call void %0(ptr nonnull sret(%"class.std::variant") align 8 %ref.tmp, ptr noundef nonnull align 8 dereferenceable(9) %sbv)
  %call = invoke noundef nonnull align 8 dereferenceable(8) ptr @_ZN4cvc58internal6detail5printERSoRKSt7variantIJldNSt7__cxx1112basic_stringIcSt11char_traitsIcESaIcEEESt3mapIS9_mSt4lessIS9_ESaISt4pairIKS9_mEEEEE(ptr noundef nonnull align 8 dereferenceable(8) %out, ptr noundef nonnull align 8 dereferenceable(49) %ref.tmp)
          to label %invoke.cont unwind label %lpad

invoke.cont:                                      ; preds = %entry
  %_M_index.i.i.i.i.i.i.i.i.i = getelementptr inbounds i8, ptr %ref.tmp, i64 48
  %1 = load i8, ptr %_M_index.i.i.i.i.i.i.i.i.i, align 8
  switch i8 %1, label %sw.default.i.i.i.i.i.i.i.i.i [
    i8 -1, label %_ZNSt7variantIJldNSt7__cxx1112basic_stringIcSt11char_traitsIcESaIcEEESt3mapIS5_mSt4lessIS5_ESaISt4pairIKS5_mEEEEED2Ev.exit
    i8 0, label %_ZNSt7variantIJldNSt7__cxx1112basic_stringIcSt11char_traitsIcESaIcEEESt3mapIS5_mSt4lessIS5_ESaISt4pairIKS5_mEEEEED2Ev.exit
    i8 1, label %_ZNSt7variantIJldNSt7__cxx1112basic_stringIcSt11char_traitsIcESaIcEEESt3mapIS5_mSt4lessIS5_ESaISt4pairIKS5_mEEEEED2Ev.exit
    i8 2, label %sw.bb3.i.i.i.i.i.i.i.i.i
    i8 3, label %sw.bb4.i.i.i.i.i.i.i.i.i
  ]

sw.bb3.i.i.i.i.i.i.i.i.i:                         ; preds = %invoke.cont
  call void @_ZNSt7__cxx1112basic_stringIcSt11char_traitsIcESaIcEED1Ev(ptr noundef nonnull align 8 dereferenceable(32) %ref.tmp) #12
  br label %_ZNSt7variantIJldNSt7__cxx1112basic_stringIcSt11char_traitsIcESaIcEEESt3mapIS5_mSt4lessIS5_ESaISt4pairIKS5_mEEEEED2Ev.exit

sw.bb4.i.i.i.i.i.i.i.i.i:                         ; preds = %invoke.cont
  %_M_parent.i.i.i.i.i.i.i.i.i.i.i.i.i.i.i.i.i.i = getelementptr inbounds i8, ptr %ref.tmp, i64 16
  %2 = load ptr, ptr %_M_parent.i.i.i.i.i.i.i.i.i.i.i.i.i.i.i.i.i.i, align 8
  invoke void @_ZNSt8_Rb_treeINSt7__cxx1112basic_stringIcSt11char_traitsIcESaIcEEESt4pairIKS5_mESt10_Select1stIS8_ESt4lessIS5_ESaIS8_EE8_M_eraseEPSt13_Rb_tree_nodeIS8_E(ptr noundef nonnull align 8 dereferenceable(48) %ref.tmp, ptr noundef %2)
          to label %_ZNSt7variantIJldNSt7__cxx1112basic_stringIcSt11char_traitsIcESaIcEEESt3mapIS5_mSt4lessIS5_ESaISt4pairIKS5_mEEEEED2Ev.exit unwind label %terminate.lpad.i.i.i.i.i.i.i.i.i.i.i.i.i.i.i.i

terminate.lpad.i.i.i.i.i.i.i.i.i.i.i.i.i.i.i.i:   ; preds = %sw.bb4.i.i.i.i.i.i.i.i.i
  %3 = landingpad { ptr, i32 }
          catch ptr null
  %4 = extractvalue { ptr, i32 } %3, 0
  call void @__clang_call_terminate(ptr %4) #15
  unreachable

sw.default.i.i.i.i.i.i.i.i.i:                     ; preds = %invoke.cont
  unreachable

_ZNSt7variantIJldNSt7__cxx1112basic_stringIcSt11char_traitsIcESaIcEEESt3mapIS5_mSt4lessIS5_ESaISt4pairIKS5_mEEEEED2Ev.exit: ; preds = %invoke.cont, %invoke.cont, %sw.bb3.i.i.i.i.i.i.i.i.i, %sw.bb4.i.i.i.i.i.i.i.i.i, %invoke.cont
  ret ptr %out

lpad:                                             ; preds = %entry
  %5 = landingpad { ptr, i32 }
          cleanup
  call void @_ZNSt7variantIJldNSt7__cxx1112basic_stringIcSt11char_traitsIcESaIcEEESt3mapIS5_mSt4lessIS5_ESaISt4pairIKS5_mEEEEED2Ev(ptr noundef nonnull align 8 dereferenceable(49) %ref.tmp) #12
  resume { ptr, i32 } %5
}